Certificate:
    Data:
        Version: 3 (0x2)
        Serial Number: 4 (0x4)
    Signature Algorithm: sha256WithRSAEncryption
        Issuer: C=US, ST=Georgia, L=Atlanta, O=Georgia Tech Secure Systems, OU=GT, CN=localhost
        Validity
            Not Before: Nov 27 22:36:00 2015 GMT
            Not After : Nov 26 22:36:00 2016 GMT
        Subject: C=US, ST=Georgia, O=Georgia Tech Secure Systems, OU=GT, CN=localhost
        Subject Public Key Info:
            Public Key Algorithm: rsaEncryption
                Public-Key: (1024 bit)
                Modulus:
                    00:c4:ca:cc:22:8d:ca:3f:45:ed:6b:61:0c:0f:9e:
                    82:a2:84:9e:d7:4e:cb:90:50:10:8f:07:74:c0:52:
                    2c:c9:b7:ea:46:d8:ef:37:6c:f8:7f:b4:34:51:0a:
                    cf:d4:b3:f3:be:d4:4c:6a:bc:70:66:44:4d:9d:ea:
                    48:05:2f:42:d5:06:e7:3e:42:73:26:e6:74:8f:9a:
                    c7:34:46:f5:7b:d4:0a:7f:84:bc:a9:e6:7a:85:f7:
                    b6:f9:3a:26:ec:11:db:68:54:73:bf:e3:32:f8:56:
                    ae:14:ee:4a:1e:4f:f4:c2:b3:f1:72:f6:35:91:3c:
                    3e:19:93:ac:90:1f:70:84:9f
                Exponent: 65537 (0x10001)
        X509v3 extensions:
            X509v3 Basic Constraints: 
                CA:FALSE
            Netscape Comment: 
                OpenSSL Generated Certificate
            X509v3 Subject Key Identifier: 
                6D:40:72:93:10:EB:64:AE:4C:F2:39:0F:84:51:A8:85:7C:FE:C3:BE
            X509v3 Authority Key Identifier: 
                keyid:E1:E6:EF:31:27:30:F1:36:4B:E6:51:E1:88:C3:A8:C8:A6:5A:89:97

    Signature Algorithm: sha256WithRSAEncryption
         a0:0d:9b:91:81:08:95:18:f3:57:2c:28:a9:ab:2a:2e:48:48:
         6d:04:03:d1:a5:2e:61:fd:fb:29:2b:2e:5b:48:ef:e8:c4:9a:
         d0:18:b1:d9:22:e5:8b:35:5f:09:5f:8f:81:f2:ea:ec:87:11:
         56:9f:44:ab:d0:dc:34:95:21:cf:60:15:e0:4a:79:f0:46:90:
         f7:ef:95:d3:6f:3e:a5:58:b1:4a:a9:be:c6:9a:a6:30:98:fe:
         d8:57:56:7d:08:ef:29:db:7e:f5:06:8f:57:e9:15:60:9a:77:
         d1:79:44:fc:be:d5:6b:e8:3e:41:5e:4f:78:fc:82:45:cd:c7:
         5a:40
-----BEGIN CERTIFICATE-----
MIICzzCCAjigAwIBAgIBBDANBgkqhkiG9w0BAQsFADB4MQswCQYDVQQGEwJVUzEQ
MA4GA1UECAwHR2VvcmdpYTEQMA4GA1UEBwwHQXRsYW50YTEkMCIGA1UECgwbR2Vv
cmdpYSBUZWNoIFNlY3VyZSBTeXN0ZW1zMQswCQYDVQQLDAJHVDESMBAGA1UEAwwJ
bG9jYWxob3N0MB4XDTE1MTEyNzIyMzYwMFoXDTE2MTEyNjIyMzYwMFowZjELMAkG
A1UEBhMCVVMxEDAOBgNVBAgMB0dlb3JnaWExJDAiBgNVBAoMG0dlb3JnaWEgVGVj
aCBTZWN1cmUgU3lzdGVtczELMAkGA1UECwwCR1QxEjAQBgNVBAMMCWxvY2FsaG9z
dDCBnzANBgkqhkiG9w0BAQEFAAOBjQAwgYkCgYEAxMrMIo3KP0Xta2EMD56CooSe
107LkFAQjwd0wFIsybfqRtjvN2z4f7Q0UQrP1LPzvtRMarxwZkRNnepIBS9C1Qbn
PkJzJuZ0j5rHNEb1e9QKf4S8qeZ6hfe2+Tom7BHbaFRzv+My+FauFO5KHk/0wrPx
cvY1kTw+GZOskB9whJ8CAwEAAaN7MHkwCQYDVR0TBAIwADAsBglghkgBhvhCAQ0E
HxYdT3BlblNTTCBHZW5lcmF0ZWQgQ2VydGlmaWNhdGUwHQYDVR0OBBYEFG1AcpMQ
62SuTPI5D4RRqIV8/sO+MB8GA1UdIwQYMBaAFOHm7zEnMPE2S+ZR4YjDqMimWomX
MA0GCSqGSIb3DQEBCwUAA4GBAKANm5GBCJUY81csKKmrKi5ISG0EA9GlLmH9+ykr
LltI7+jEmtAYsdki5Ys1Xwlfj4Hy6uyHEVafRKvQ3DSVIc9gFeBKefBGkPfvldNv
PqVYsUqpvsaapjCY/thXVn0I7ynbfvUGj1fpFWCad9F5RPy+1WvoPkFeT3j8gkXN
x1pA
-----END CERTIFICATE-----
