Certificate:
    Data:
        Version: 3 (0x2)
        Serial Number: 2 (0x2)
    Signature Algorithm: sha256WithRSAEncryption
        Issuer: C=US, ST=Georgia, L=Atlanta, O=Georgia Tech Secure Systems, OU=GT, CN=localhost
        Validity
            Not Before: Nov 25 02:29:45 2015 GMT
            Not After : Nov 24 02:29:45 2016 GMT
        Subject: C=US, ST=Georgia, O=Georgia Tech Secure Systems, OU=GT, CN=localhost
        Subject Public Key Info:
            Public Key Algorithm: rsaEncryption
                Public-Key: (1024 bit)
                Modulus:
                    00:b5:41:a8:cf:5d:96:a4:4b:90:45:5b:45:37:3e:
                    17:8b:6d:26:e8:62:51:7b:f8:75:a9:da:01:5d:b3:
                    6b:8c:34:a3:4c:a4:fb:1b:05:f7:23:b8:90:fc:c6:
                    d6:a6:b0:ca:6f:56:cc:a5:d9:68:cd:93:72:5a:7f:
                    03:00:a1:89:38:00:12:99:6b:f9:9f:b9:36:43:03:
                    a4:3c:c3:38:2d:c3:63:30:e8:9b:0f:de:21:b8:5c:
                    cd:0a:45:fa:47:df:16:b4:1d:88:6b:d8:16:0d:94:
                    ce:5d:56:f5:87:12:2e:3e:c7:37:cb:20:a3:1b:bf:
                    e3:a4:51:5f:f1:2e:f9:c4:45
                Exponent: 65537 (0x10001)
        X509v3 extensions:
            X509v3 Basic Constraints: 
                CA:FALSE
            Netscape Comment: 
                OpenSSL Generated Certificate
            X509v3 Subject Key Identifier: 
                4D:4B:93:B1:D9:AB:E9:3B:E3:59:2C:C7:26:3A:2F:4A:7C:19:45:E4
            X509v3 Authority Key Identifier: 
                keyid:E1:E6:EF:31:27:30:F1:36:4B:E6:51:E1:88:C3:A8:C8:A6:5A:89:97

    Signature Algorithm: sha256WithRSAEncryption
         ba:be:9a:13:68:dd:21:76:46:87:ee:6a:11:87:ed:c5:d0:d4:
         82:e9:4f:61:20:8e:ff:0a:30:a2:cf:03:3b:e2:85:8c:b7:2f:
         68:0b:bb:a6:20:bb:02:dc:5d:3e:a7:78:76:17:fc:3b:6d:65:
         8b:4a:16:e4:57:a0:78:08:ad:aa:fa:91:26:7a:f9:fa:b7:ac:
         5b:e3:b4:b6:22:80:f5:6c:91:3f:01:36:80:0a:43:86:a5:09:
         f4:d4:12:40:9c:f0:f8:0f:66:a3:83:39:9c:c6:c5:f5:1a:d7:
         33:aa:4d:5a:6b:9b:eb:5f:57:8d:e3:15:c2:96:37:b3:e7:2a:
         f0:76
-----BEGIN CERTIFICATE-----
MIICzzCCAjigAwIBAgIBAjANBgkqhkiG9w0BAQsFADB4MQswCQYDVQQGEwJVUzEQ
MA4GA1UECAwHR2VvcmdpYTEQMA4GA1UEBwwHQXRsYW50YTEkMCIGA1UECgwbR2Vv
cmdpYSBUZWNoIFNlY3VyZSBTeXN0ZW1zMQswCQYDVQQLDAJHVDESMBAGA1UEAwwJ
bG9jYWxob3N0MB4XDTE1MTEyNTAyMjk0NVoXDTE2MTEyNDAyMjk0NVowZjELMAkG
A1UEBhMCVVMxEDAOBgNVBAgMB0dlb3JnaWExJDAiBgNVBAoMG0dlb3JnaWEgVGVj
aCBTZWN1cmUgU3lzdGVtczELMAkGA1UECwwCR1QxEjAQBgNVBAMMCWxvY2FsaG9z
dDCBnzANBgkqhkiG9w0BAQEFAAOBjQAwgYkCgYEAtUGoz12WpEuQRVtFNz4Xi20m
6GJRe/h1qdoBXbNrjDSjTKT7GwX3I7iQ/MbWprDKb1bMpdlozZNyWn8DAKGJOAAS
mWv5n7k2QwOkPMM4LcNjMOibD94huFzNCkX6R98WtB2Ia9gWDZTOXVb1hxIuPsc3
yyCjG7/jpFFf8S75xEUCAwEAAaN7MHkwCQYDVR0TBAIwADAsBglghkgBhvhCAQ0E
HxYdT3BlblNTTCBHZW5lcmF0ZWQgQ2VydGlmaWNhdGUwHQYDVR0OBBYEFE1Lk7HZ
q+k741ksxyY6L0p8GUXkMB8GA1UdIwQYMBaAFOHm7zEnMPE2S+ZR4YjDqMimWomX
MA0GCSqGSIb3DQEBCwUAA4GBALq+mhNo3SF2RofuahGH7cXQ1ILpT2Egjv8KMKLP
AzvihYy3L2gLu6YguwLcXT6neHYX/DttZYtKFuRXoHgIrar6kSZ6+fq3rFvjtLYi
gPVskT8BNoAKQ4alCfTUEkCc8PgPZqODOZzGxfUa1zOqTVprm+tfV43jFcKWN7Pn
KvB2
-----END CERTIFICATE-----
