Certificate:
    Data:
        Version: 3 (0x2)
        Serial Number: 3 (0x3)
    Signature Algorithm: sha256WithRSAEncryption
        Issuer: C=US, ST=Georgia, L=Atlanta, O=Georgia Tech Secure Systems, OU=GT, CN=localhost
        Validity
            Not Before: Nov 27 06:53:43 2015 GMT
            Not After : Nov 26 06:53:43 2016 GMT
        Subject: C=US, ST=Georgia, O=Georgia Tech Secure Systems, OU=GT, CN=localhost
        Subject Public Key Info:
            Public Key Algorithm: rsaEncryption
                Public-Key: (1024 bit)
                Modulus:
                    00:d3:14:d2:44:72:5b:b7:93:13:e4:ac:6b:91:bb:
                    3f:2a:4f:66:48:c3:b6:6d:23:09:27:42:85:39:87:
                    3b:ad:20:4d:24:45:08:75:42:22:39:d6:b4:5b:77:
                    7a:7f:11:5f:28:79:19:85:25:b9:df:d2:ac:18:f2:
                    6d:1b:b5:a8:75:27:05:46:c8:c5:2f:00:37:cc:ec:
                    31:47:13:53:3e:2f:33:c6:b6:cb:35:80:7b:62:2b:
                    7c:63:bd:fc:04:71:28:14:c8:7a:90:52:dd:b6:3a:
                    e2:de:1e:fe:11:88:f1:3c:0f:21:3a:11:8d:fa:06:
                    25:e2:ed:7f:4c:60:e5:77:65
                Exponent: 65537 (0x10001)
        X509v3 extensions:
            X509v3 Basic Constraints: 
                CA:FALSE
            Netscape Comment: 
                OpenSSL Generated Certificate
            X509v3 Subject Key Identifier: 
                E6:C2:9B:69:F7:8C:C4:3E:14:75:82:D4:68:7B:F8:11:05:B1:60:2E
            X509v3 Authority Key Identifier: 
                keyid:E1:E6:EF:31:27:30:F1:36:4B:E6:51:E1:88:C3:A8:C8:A6:5A:89:97

    Signature Algorithm: sha256WithRSAEncryption
         12:1c:c7:24:5b:79:59:29:37:73:53:d4:dd:6f:14:6f:d9:4b:
         c0:e6:46:9c:3d:c2:48:1d:4f:96:6e:a7:1a:9e:55:d7:6d:fe:
         89:cc:68:8b:63:43:9f:8f:74:4e:29:b5:54:02:12:a3:44:27:
         2c:3a:75:af:fc:1c:3c:67:73:e4:98:76:f3:73:17:5e:b1:06:
         8c:c4:08:a0:25:15:01:8a:1f:72:83:56:11:88:dc:dc:e5:ad:
         e9:f1:4a:56:1d:e5:26:09:d6:bd:fd:1d:72:9b:a9:4b:a3:14:
         89:21:d6:1a:ee:c4:60:8a:ba:12:9d:ea:9e:2e:d7:92:80:6d:
         db:e2
-----BEGIN CERTIFICATE-----
MIICzzCCAjigAwIBAgIBAzANBgkqhkiG9w0BAQsFADB4MQswCQYDVQQGEwJVUzEQ
MA4GA1UECAwHR2VvcmdpYTEQMA4GA1UEBwwHQXRsYW50YTEkMCIGA1UECgwbR2Vv
cmdpYSBUZWNoIFNlY3VyZSBTeXN0ZW1zMQswCQYDVQQLDAJHVDESMBAGA1UEAwwJ
bG9jYWxob3N0MB4XDTE1MTEyNzA2NTM0M1oXDTE2MTEyNjA2NTM0M1owZjELMAkG
A1UEBhMCVVMxEDAOBgNVBAgMB0dlb3JnaWExJDAiBgNVBAoMG0dlb3JnaWEgVGVj
aCBTZWN1cmUgU3lzdGVtczELMAkGA1UECwwCR1QxEjAQBgNVBAMMCWxvY2FsaG9z
dDCBnzANBgkqhkiG9w0BAQEFAAOBjQAwgYkCgYEA0xTSRHJbt5MT5Kxrkbs/Kk9m
SMO2bSMJJ0KFOYc7rSBNJEUIdUIiOda0W3d6fxFfKHkZhSW539KsGPJtG7WodScF
RsjFLwA3zOwxRxNTPi8zxrbLNYB7Yit8Y738BHEoFMh6kFLdtjri3h7+EYjxPA8h
OhGN+gYl4u1/TGDld2UCAwEAAaN7MHkwCQYDVR0TBAIwADAsBglghkgBhvhCAQ0E
HxYdT3BlblNTTCBHZW5lcmF0ZWQgQ2VydGlmaWNhdGUwHQYDVR0OBBYEFObCm2n3
jMQ+FHWC1Gh7+BEFsWAuMB8GA1UdIwQYMBaAFOHm7zEnMPE2S+ZR4YjDqMimWomX
MA0GCSqGSIb3DQEBCwUAA4GBABIcxyRbeVkpN3NT1N1vFG/ZS8DmRpw9wkgdT5Zu
pxqeVddt/onMaItjQ5+PdE4ptVQCEqNEJyw6da/8HDxnc+SYdvNzF16xBozECKAl
FQGKH3KDVhGI3NzlrenxSlYd5SYJ1r39HXKbqUujFIkh1hruxGCKuhKd6p4u15KA
bdvi
-----END CERTIFICATE-----
