Certificate:
    Data:
        Version: 3 (0x2)
        Serial Number: 7 (0x7)
    Signature Algorithm: sha256WithRSAEncryption
        Issuer: C=US, ST=Georgia, L=Atlanta, O=Georgia Tech Secure Systems, OU=GT, CN=localhost
        Validity
            Not Before: Dec  4 03:21:58 2015 GMT
            Not After : Dec  3 03:21:58 2016 GMT
        Subject: C=US, ST=Georgia, O=Georgia Tech Secure Systems, OU=GT, CN=localhost
        Subject Public Key Info:
            Public Key Algorithm: rsaEncryption
                Public-Key: (1024 bit)
                Modulus:
                    00:b8:db:8d:05:82:7c:30:dd:67:c1:2f:13:cc:7f:
                    14:a8:11:bb:8c:09:fd:3b:ce:ec:4d:29:ef:85:e0:
                    67:21:a5:e6:ce:33:37:00:64:36:bb:63:97:58:d8:
                    c2:d9:8e:e7:ee:23:5e:7a:d9:f0:e9:1c:54:85:79:
                    00:87:1b:4d:dd:a4:59:58:ee:1b:15:5a:bc:2d:ac:
                    1d:0f:c8:e2:96:39:1e:df:96:04:6c:1c:38:ff:24:
                    f8:3d:05:00:5a:f2:ca:08:37:8d:48:b1:41:1c:94:
                    84:3b:da:81:95:bc:e2:4c:9a:02:e9:a6:d7:bf:5e:
                    7c:5b:f6:0d:1b:46:0e:f7:53
                Exponent: 65537 (0x10001)
        X509v3 extensions:
            X509v3 Basic Constraints: 
                CA:FALSE
            Netscape Comment: 
                OpenSSL Generated Certificate
            X509v3 Subject Key Identifier: 
                F0:B7:CF:D0:C5:AB:66:68:CC:80:43:A8:10:59:E0:2D:1D:6C:B0:4E
            X509v3 Authority Key Identifier: 
                keyid:E1:E6:EF:31:27:30:F1:36:4B:E6:51:E1:88:C3:A8:C8:A6:5A:89:97

    Signature Algorithm: sha256WithRSAEncryption
         1f:aa:22:54:ce:6f:28:a6:57:1b:c6:23:47:e2:49:21:3e:50:
         87:cd:6d:b3:ae:39:07:64:df:0b:15:ff:d5:a1:c1:f3:a9:48:
         69:34:7a:ab:52:cf:66:85:ed:87:9a:ca:48:54:9d:36:4a:e3:
         ae:4d:92:b9:99:d0:b5:b3:ef:51:12:86:af:5b:e7:eb:38:cb:
         b9:c3:2c:c1:ca:de:fc:5b:be:7f:67:37:02:db:97:5b:12:9a:
         e8:a1:3b:11:31:98:c1:3b:b9:8f:64:f4:84:4b:d2:a0:81:01:
         b9:e6:dd:9c:93:0d:1b:42:5b:fd:2c:e3:e3:1d:7b:c3:cb:29:
         f5:86
-----BEGIN CERTIFICATE-----
MIICzzCCAjigAwIBAgIBBzANBgkqhkiG9w0BAQsFADB4MQswCQYDVQQGEwJVUzEQ
MA4GA1UECAwHR2VvcmdpYTEQMA4GA1UEBwwHQXRsYW50YTEkMCIGA1UECgwbR2Vv
cmdpYSBUZWNoIFNlY3VyZSBTeXN0ZW1zMQswCQYDVQQLDAJHVDESMBAGA1UEAwwJ
bG9jYWxob3N0MB4XDTE1MTIwNDAzMjE1OFoXDTE2MTIwMzAzMjE1OFowZjELMAkG
A1UEBhMCVVMxEDAOBgNVBAgMB0dlb3JnaWExJDAiBgNVBAoMG0dlb3JnaWEgVGVj
aCBTZWN1cmUgU3lzdGVtczELMAkGA1UECwwCR1QxEjAQBgNVBAMMCWxvY2FsaG9z
dDCBnzANBgkqhkiG9w0BAQEFAAOBjQAwgYkCgYEAuNuNBYJ8MN1nwS8TzH8UqBG7
jAn9O87sTSnvheBnIaXmzjM3AGQ2u2OXWNjC2Y7n7iNeetnw6RxUhXkAhxtN3aRZ
WO4bFVq8LawdD8jiljke35YEbBw4/yT4PQUAWvLKCDeNSLFBHJSEO9qBlbziTJoC
6abXv158W/YNG0YO91MCAwEAAaN7MHkwCQYDVR0TBAIwADAsBglghkgBhvhCAQ0E
HxYdT3BlblNTTCBHZW5lcmF0ZWQgQ2VydGlmaWNhdGUwHQYDVR0OBBYEFPC3z9DF
q2ZozIBDqBBZ4C0dbLBOMB8GA1UdIwQYMBaAFOHm7zEnMPE2S+ZR4YjDqMimWomX
MA0GCSqGSIb3DQEBCwUAA4GBAB+qIlTObyimVxvGI0fiSSE+UIfNbbOuOQdk3wsV
/9WhwfOpSGk0eqtSz2aF7YeaykhUnTZK465NkrmZ0LWz71EShq9b5+s4y7nDLMHK
3vxbvn9nNwLbl1sSmuihOxExmME7uY9k9IRL0qCBAbnm3ZyTDRtCW/0s4+Mde8PL
KfWG
-----END CERTIFICATE-----
