Certificate:
    Data:
        Version: 3 (0x2)
        Serial Number: 8 (0x8)
    Signature Algorithm: sha256WithRSAEncryption
        Issuer: C=US, ST=Georgia, L=Atlanta, O=Georgia Tech Secure Systems, OU=GT, CN=localhost
        Validity
            Not Before: Dec  4 19:31:42 2015 GMT
            Not After : Dec  3 19:31:42 2016 GMT
        Subject: C=US, ST=Georgia, O=Georgia Tech Secure Systems, OU=GT, CN=localhost
        Subject Public Key Info:
            Public Key Algorithm: rsaEncryption
                Public-Key: (1024 bit)
                Modulus:
                    00:c3:43:20:95:04:87:a6:20:e9:78:37:09:33:54:
                    0d:da:28:71:cf:97:63:f4:bc:18:06:82:80:39:2b:
                    6c:28:93:34:d3:27:1c:11:d8:54:b7:7d:4c:25:96:
                    c7:d1:02:7b:13:ed:1e:fd:7a:90:68:ff:4c:49:96:
                    db:04:fa:92:1e:85:1f:09:8b:88:87:c1:38:27:65:
                    2b:c9:4e:bb:c8:7b:f0:3e:69:38:0c:70:ec:dd:15:
                    c8:5c:b5:58:25:01:0a:09:cd:90:db:52:25:c0:49:
                    f7:b5:d3:10:14:f4:15:b7:20:2c:7e:35:fe:cc:cb:
                    91:19:23:c5:18:20:f7:e7:85
                Exponent: 65537 (0x10001)
        X509v3 extensions:
            X509v3 Basic Constraints: 
                CA:FALSE
            Netscape Comment: 
                OpenSSL Generated Certificate
            X509v3 Subject Key Identifier: 
                F1:17:BF:65:4C:DA:EE:DE:F5:C4:B2:F0:09:0A:AC:15:24:15:86:DC
            X509v3 Authority Key Identifier: 
                keyid:E1:E6:EF:31:27:30:F1:36:4B:E6:51:E1:88:C3:A8:C8:A6:5A:89:97

    Signature Algorithm: sha256WithRSAEncryption
         55:db:03:d6:57:dc:65:1a:d1:a0:82:2a:14:bf:11:22:17:cb:
         e3:18:a0:1e:f0:e6:26:7f:0e:0d:7a:fb:03:c5:3c:56:b0:e3:
         7d:52:e9:ce:c0:65:84:d3:95:0c:5b:a8:a9:15:4a:7b:01:d6:
         bd:95:b0:02:de:cd:69:78:42:03:73:c3:76:74:1e:75:53:b6:
         72:a2:f8:40:4b:6a:00:da:c5:1e:ad:b1:21:6d:c9:34:18:24:
         1d:c7:6c:47:22:3b:ca:59:12:e6:20:09:63:74:1f:2d:81:5b:
         7c:57:e6:5b:bc:b2:11:52:d6:47:5e:93:ae:e4:86:20:ae:5c:
         ed:89
-----BEGIN CERTIFICATE-----
MIICzzCCAjigAwIBAgIBCDANBgkqhkiG9w0BAQsFADB4MQswCQYDVQQGEwJVUzEQ
MA4GA1UECAwHR2VvcmdpYTEQMA4GA1UEBwwHQXRsYW50YTEkMCIGA1UECgwbR2Vv
cmdpYSBUZWNoIFNlY3VyZSBTeXN0ZW1zMQswCQYDVQQLDAJHVDESMBAGA1UEAwwJ
bG9jYWxob3N0MB4XDTE1MTIwNDE5MzE0MloXDTE2MTIwMzE5MzE0MlowZjELMAkG
A1UEBhMCVVMxEDAOBgNVBAgMB0dlb3JnaWExJDAiBgNVBAoMG0dlb3JnaWEgVGVj
aCBTZWN1cmUgU3lzdGVtczELMAkGA1UECwwCR1QxEjAQBgNVBAMMCWxvY2FsaG9z
dDCBnzANBgkqhkiG9w0BAQEFAAOBjQAwgYkCgYEAw0MglQSHpiDpeDcJM1QN2ihx
z5dj9LwYBoKAOStsKJM00yccEdhUt31MJZbH0QJ7E+0e/XqQaP9MSZbbBPqSHoUf
CYuIh8E4J2UryU67yHvwPmk4DHDs3RXIXLVYJQEKCc2Q21IlwEn3tdMQFPQVtyAs
fjX+zMuRGSPFGCD354UCAwEAAaN7MHkwCQYDVR0TBAIwADAsBglghkgBhvhCAQ0E
HxYdT3BlblNTTCBHZW5lcmF0ZWQgQ2VydGlmaWNhdGUwHQYDVR0OBBYEFPEXv2VM
2u7e9cSy8AkKrBUkFYbcMB8GA1UdIwQYMBaAFOHm7zEnMPE2S+ZR4YjDqMimWomX
MA0GCSqGSIb3DQEBCwUAA4GBAFXbA9ZX3GUa0aCCKhS/ESIXy+MYoB7w5iZ/Dg16
+wPFPFaw431S6c7AZYTTlQxbqKkVSnsB1r2VsALezWl4QgNzw3Z0HnVTtnKi+EBL
agDaxR6tsSFtyTQYJB3HbEciO8pZEuYgCWN0Hy2BW3xX5lu8shFS1kdek67khiCu
XO2J
-----END CERTIFICATE-----
