Certificate:
    Data:
        Version: 3 (0x2)
        Serial Number: 1 (0x1)
    Signature Algorithm: sha256WithRSAEncryption
        Issuer: C=US, ST=Georgia, L=Atlanta, O=Georgia Tech Secure Systems, OU=GT, CN=localhost
        Validity
            Not Before: Nov 25 02:29:20 2015 GMT
            Not After : Nov 24 02:29:20 2016 GMT
        Subject: C=US, ST=Georgia, O=Georgia Tech Secure Systems, OU=GT, CN=localhost
        Subject Public Key Info:
            Public Key Algorithm: rsaEncryption
                Public-Key: (1024 bit)
                Modulus:
                    00:e0:e4:a2:eb:61:65:a8:00:a8:b9:c9:1e:e7:32:
                    d3:da:99:00:1c:1c:83:0e:ac:e1:47:4c:7d:77:53:
                    67:98:f9:f9:cf:53:4c:f8:24:fa:18:f3:45:88:99:
                    4c:72:96:10:e1:11:43:fa:a3:1c:58:4f:98:95:8a:
                    51:04:f6:ab:9d:c9:8f:4c:b6:02:d5:75:79:23:a3:
                    73:6f:50:40:2d:bd:19:18:96:ee:e2:d6:33:88:9e:
                    81:07:a8:1e:42:e6:37:b7:d0:e3:ea:10:63:e0:0f:
                    ed:c3:39:30:4c:31:76:f4:9d:90:1f:90:b4:d3:43:
                    43:16:59:a8:60:1f:90:82:23
                Exponent: 65537 (0x10001)
        X509v3 extensions:
            X509v3 Basic Constraints: 
                CA:FALSE
            Netscape Comment: 
                OpenSSL Generated Certificate
            X509v3 Subject Key Identifier: 
                BF:6F:09:C0:F4:9F:ED:8C:97:22:46:08:BB:4C:35:C6:F7:17:38:02
            X509v3 Authority Key Identifier: 
                keyid:E1:E6:EF:31:27:30:F1:36:4B:E6:51:E1:88:C3:A8:C8:A6:5A:89:97

    Signature Algorithm: sha256WithRSAEncryption
         19:90:c7:c6:57:ac:d2:7b:68:4f:a8:a2:6c:a6:ee:33:98:7b:
         80:e0:49:59:16:49:b0:1a:73:85:60:34:a6:d5:a7:c8:b2:6b:
         76:80:27:da:71:59:be:95:3d:f5:47:10:b4:ef:53:66:cf:d7:
         aa:6e:b8:a7:a4:75:7a:5c:66:eb:84:66:fb:fd:e6:c9:af:c3:
         e5:4a:5b:d1:69:a3:8e:b9:e4:84:6d:af:81:94:13:6a:00:3c:
         72:02:88:e6:ca:30:f5:4b:04:02:a1:63:63:05:f4:76:fc:8c:
         02:4d:e9:2d:a4:58:71:a1:0a:55:89:33:9f:55:4e:a3:8f:78:
         1c:13
-----BEGIN CERTIFICATE-----
MIICzzCCAjigAwIBAgIBATANBgkqhkiG9w0BAQsFADB4MQswCQYDVQQGEwJVUzEQ
MA4GA1UECAwHR2VvcmdpYTEQMA4GA1UEBwwHQXRsYW50YTEkMCIGA1UECgwbR2Vv
cmdpYSBUZWNoIFNlY3VyZSBTeXN0ZW1zMQswCQYDVQQLDAJHVDESMBAGA1UEAwwJ
bG9jYWxob3N0MB4XDTE1MTEyNTAyMjkyMFoXDTE2MTEyNDAyMjkyMFowZjELMAkG
A1UEBhMCVVMxEDAOBgNVBAgMB0dlb3JnaWExJDAiBgNVBAoMG0dlb3JnaWEgVGVj
aCBTZWN1cmUgU3lzdGVtczELMAkGA1UECwwCR1QxEjAQBgNVBAMMCWxvY2FsaG9z
dDCBnzANBgkqhkiG9w0BAQEFAAOBjQAwgYkCgYEA4OSi62FlqACoucke5zLT2pkA
HByDDqzhR0x9d1NnmPn5z1NM+CT6GPNFiJlMcpYQ4RFD+qMcWE+YlYpRBParncmP
TLYC1XV5I6Nzb1BALb0ZGJbu4tYziJ6BB6geQuY3t9Dj6hBj4A/twzkwTDF29J2Q
H5C000NDFlmoYB+QgiMCAwEAAaN7MHkwCQYDVR0TBAIwADAsBglghkgBhvhCAQ0E
HxYdT3BlblNTTCBHZW5lcmF0ZWQgQ2VydGlmaWNhdGUwHQYDVR0OBBYEFL9vCcD0
n+2MlyJGCLtMNcb3FzgCMB8GA1UdIwQYMBaAFOHm7zEnMPE2S+ZR4YjDqMimWomX
MA0GCSqGSIb3DQEBCwUAA4GBABmQx8ZXrNJ7aE+oomym7jOYe4DgSVkWSbAac4Vg
NKbVp8iya3aAJ9pxWb6VPfVHELTvU2bP16puuKekdXpcZuuEZvv95smvw+VKW9Fp
o4655IRtr4GUE2oAPHICiObKMPVLBAKhY2MF9Hb8jAJN6S2kWHGhClWJM59VTqOP
eBwT
-----END CERTIFICATE-----
-----BEGIN CERTIFICATE-----
MIICvjCCAiegAwIBAgIJALvTW1xmsIPOMA0GCSqGSIb3DQEBCwUAMHgxCzAJBgNV
BAYTAlVTMRAwDgYDVQQIDAdHZW9yZ2lhMRAwDgYDVQQHDAdBdGxhbnRhMSQwIgYD
VQQKDBtHZW9yZ2lhIFRlY2ggU2VjdXJlIFN5c3RlbXMxCzAJBgNVBAsMAkdUMRIw
EAYDVQQDDAlsb2NhbGhvc3QwHhcNMTUxMTI1MDIyOTA1WhcNMTYxMTI0MDIyOTA1
WjB4MQswCQYDVQQGEwJVUzEQMA4GA1UECAwHR2VvcmdpYTEQMA4GA1UEBwwHQXRs
YW50YTEkMCIGA1UECgwbR2VvcmdpYSBUZWNoIFNlY3VyZSBTeXN0ZW1zMQswCQYD
VQQLDAJHVDESMBAGA1UEAwwJbG9jYWxob3N0MIGfMA0GCSqGSIb3DQEBAQUAA4GN
ADCBiQKBgQDBtkk3EHwBpgtIBYW79wzYZNk+CwfTOxTpzruGAMa7jiCV+pbN/1YB
xovVRfWr+d8vQuKhBsqaRXQJLbRVJomk/cZT/UdFEO3ZDdLjYoPL1XvOA0pbf6SN
lvSo0w03vNIxUvktDoPm0NGLv+RYF1KkQc/+XBTY2MrI1eNJga8uCQIDAQABo1Aw
TjAdBgNVHQ4EFgQU4ebvMScw8TZL5lHhiMOoyKZaiZcwHwYDVR0jBBgwFoAU4ebv
MScw8TZL5lHhiMOoyKZaiZcwDAYDVR0TBAUwAwEB/zANBgkqhkiG9w0BAQsFAAOB
gQAB5fifminbPYcKGtpJ2JQycWYieljfrEQLLloF4jAaHSnYeQRKYPEJ5W+oEXu8
uh94e3+PxsoHrFr/BW741TKATzgqMfw438rsieOAQ8j87AJQogMqPCXnC0ppt6je
/H5HalLLbcEcmhSohkdHaFCm1Ywspao+zwoRYh37S5XDBw==
-----END CERTIFICATE-----
